target datalayout = "e-m:e-p270:32:32-p271:32:32-p272:64:64-i64:64-i128:128-f80:128-n8:16:32:64-S128"
target triple = "x86_64-pc-linux-gnu"

%struct.jpeg_decompress_struct = type { ptr, ptr, ptr, ptr, i32, i32, ptr, i32, i32, i32, i32, i32, i32, i32, double, i32, i32, i32, i32, i32, i32, i32, i32, i32, i32, i32, i32, i32, i32, i32, i32, i32, i32, ptr, i32, i32, i32, i32, i32, ptr, [4 x ptr], [4 x ptr], [4 x ptr], i32, ptr, i32, i32, [16 x i8], [16 x i8], [16 x i8], i32, i32, i8, i8, i8, i16, i16, i32, i8, i32, ptr, i32, i32, i32, i32, ptr, i32, [4 x ptr], i32, i32, i32, [10 x i32], i32, i32, i32, i32, i32, ptr, ptr, ptr, ptr, ptr, ptr, ptr, ptr, ptr, ptr, ptr }
%struct.jpeg_input_controller = type { ptr, ptr, ptr, ptr, i32, i32 }
%struct.jpeg_progress_mgr = type { ptr, i64, i64, i32, i32 }
%struct.jpeg_error_mgr = type { ptr, ptr, ptr, ptr, ptr, i32, %union.anon, i32, i64, ptr, i32, ptr, i32, i32 }
%union.anon = type { [8 x i32], [48 x i8] }
%struct.jpeg_decomp_master = type { ptr, ptr, i32 }
%struct.jpeg_d_main_controller = type { ptr, ptr }

; Function Attrs: nounwind uwtable
define internal i32 @output_pass_setup(ptr noundef %0) #0 {
  %2 = alloca i32, align 4
  %3 = alloca ptr, align 8
  %4 = alloca i32, align 4
  store ptr %0, ptr %3, align 8
  %5 = load ptr, ptr %3, align 8
  %6 = getelementptr inbounds %struct.jpeg_decompress_struct, ptr %5, i32 0, i32 5
  %7 = load i32, ptr %6, align 4
  %8 = icmp ne i32 %7, 204
  br i1 %8, label %9, label %20

9:                                                ; preds = %1
  %10 = load ptr, ptr %3, align 8
  %11 = getelementptr inbounds %struct.jpeg_decompress_struct, ptr %10, i32 0, i32 77
  %12 = load ptr, ptr %11, align 8
  %13 = getelementptr inbounds %struct.jpeg_decomp_master, ptr %12, i32 0, i32 0
  %14 = load ptr, ptr %13, align 8
  %15 = load ptr, ptr %3, align 8
  call void %14(ptr noundef %15)
  %16 = load ptr, ptr %3, align 8
  %17 = getelementptr inbounds %struct.jpeg_decompress_struct, ptr %16, i32 0, i32 34
  store i32 0, ptr %17, align 8
  %18 = load ptr, ptr %3, align 8
  %19 = getelementptr inbounds %struct.jpeg_decompress_struct, ptr %18, i32 0, i32 5
  store i32 204, ptr %19, align 4
  br label %20

20:                                               ; preds = %9, %1
  br label %21

21:                                               ; preds = %84, %20
  %22 = load ptr, ptr %3, align 8
  %23 = getelementptr inbounds %struct.jpeg_decompress_struct, ptr %22, i32 0, i32 77
  %24 = load ptr, ptr %23, align 8
  %25 = getelementptr inbounds %struct.jpeg_decomp_master, ptr %24, i32 0, i32 2
  %26 = load i32, ptr %25, align 8
  %27 = icmp ne i32 %26, 0
  br i1 %27, label %28, label %99

28:                                               ; preds = %21
  br label %29

29:                                               ; preds = %83, %28
  %30 = load ptr, ptr %3, align 8
  %31 = getelementptr inbounds %struct.jpeg_decompress_struct, ptr %30, i32 0, i32 34
  %32 = load i32, ptr %31, align 8
  %33 = load ptr, ptr %3, align 8
  %34 = getelementptr inbounds %struct.jpeg_decompress_struct, ptr %33, i32 0, i32 28
  %35 = load i32, ptr %34, align 4
  %36 = icmp ult i32 %32, %35
  br i1 %36, label %37, label %84

37:                                               ; preds = %29
  %38 = load ptr, ptr %3, align 8
  %39 = getelementptr inbounds %struct.jpeg_decompress_struct, ptr %38, i32 0, i32 2
  %40 = load ptr, ptr %39, align 8
  %41 = icmp ne ptr %40, null
  br i1 %41, label %42, label %65

42:                                               ; preds = %37
  %43 = load ptr, ptr %3, align 8
  %44 = getelementptr inbounds %struct.jpeg_decompress_struct, ptr %43, i32 0, i32 34
  %45 = load i32, ptr %44, align 8
  %46 = zext i32 %45 to i64
  %47 = load ptr, ptr %3, align 8
  %48 = getelementptr inbounds %struct.jpeg_decompress_struct, ptr %47, i32 0, i32 2
  %49 = load ptr, ptr %48, align 8
  %50 = getelementptr inbounds %struct.jpeg_progress_mgr, ptr %49, i32 0, i32 1
  store i64 %46, ptr %50, align 8
  %51 = load ptr, ptr %3, align 8
  %52 = getelementptr inbounds %struct.jpeg_decompress_struct, ptr %51, i32 0, i32 28
  %53 = load i32, ptr %52, align 4
  %54 = zext i32 %53 to i64
  %55 = load ptr, ptr %3, align 8
  %56 = getelementptr inbounds %struct.jpeg_decompress_struct, ptr %55, i32 0, i32 2
  %57 = load ptr, ptr %56, align 8
  %58 = getelementptr inbounds %struct.jpeg_progress_mgr, ptr %57, i32 0, i32 2
  store i64 %54, ptr %58, align 8
  %59 = load ptr, ptr %3, align 8
  %60 = getelementptr inbounds %struct.jpeg_decompress_struct, ptr %59, i32 0, i32 2
  %61 = load ptr, ptr %60, align 8
  %62 = getelementptr inbounds %struct.jpeg_progress_mgr, ptr %61, i32 0, i32 0
  %63 = load ptr, ptr %62, align 8
  %64 = load ptr, ptr %3, align 8
  call void %63(ptr noundef %64)
  br label %65

65:                                               ; preds = %42, %37
  %66 = load ptr, ptr %3, align 8
  %67 = getelementptr inbounds %struct.jpeg_decompress_struct, ptr %66, i32 0, i32 34
  %68 = load i32, ptr %67, align 8
  store i32 %68, ptr %4, align 4
  %69 = load ptr, ptr %3, align 8
  %70 = getelementptr inbounds %struct.jpeg_decompress_struct, ptr %69, i32 0, i32 78
  %71 = load ptr, ptr %70, align 8
  %72 = getelementptr inbounds %struct.jpeg_d_main_controller, ptr %71, i32 0, i32 1
  %73 = load ptr, ptr %72, align 8
  %74 = load ptr, ptr %3, align 8
  %75 = load ptr, ptr %3, align 8
  %76 = getelementptr inbounds %struct.jpeg_decompress_struct, ptr %75, i32 0, i32 34
  call void %73(ptr noundef %74, ptr noundef null, ptr noundef %76, i32 noundef 0)
  %77 = load ptr, ptr %3, align 8
  %78 = getelementptr inbounds %struct.jpeg_decompress_struct, ptr %77, i32 0, i32 34
  %79 = load i32, ptr %78, align 8
  %80 = load i32, ptr %4, align 4
  %81 = icmp eq i32 %79, %80
  br i1 %81, label %82, label %83

82:                                               ; preds = %65
  store i32 0, ptr %2, align 4
  br label %107

83:                                               ; preds = %65
  br label %29, !llvm.loop !6

84:                                               ; preds = %29
  %85 = load ptr, ptr %3, align 8
  %86 = getelementptr inbounds %struct.jpeg_decompress_struct, ptr %85, i32 0, i32 77
  %87 = load ptr, ptr %86, align 8
  %88 = getelementptr inbounds %struct.jpeg_decomp_master, ptr %87, i32 0, i32 1
  %89 = load ptr, ptr %88, align 8
  %90 = load ptr, ptr %3, align 8
  call void %89(ptr noundef %90)
  %91 = load ptr, ptr %3, align 8
  %92 = getelementptr inbounds %struct.jpeg_decompress_struct, ptr %91, i32 0, i32 77
  %93 = load ptr, ptr %92, align 8
  %94 = getelementptr inbounds %struct.jpeg_decomp_master, ptr %93, i32 0, i32 0
  %95 = load ptr, ptr %94, align 8
  %96 = load ptr, ptr %3, align 8
  call void %95(ptr noundef %96)
  %97 = load ptr, ptr %3, align 8
  %98 = getelementptr inbounds %struct.jpeg_decompress_struct, ptr %97, i32 0, i32 34
  store i32 0, ptr %98, align 8
  br label %21, !llvm.loop !8

99:                                               ; preds = %21
  %100 = load ptr, ptr %3, align 8
  %101 = getelementptr inbounds %struct.jpeg_decompress_struct, ptr %100, i32 0, i32 16
  %102 = load i32, ptr %101, align 4
  %103 = icmp ne i32 %102, 0
  %104 = select i1 %103, i32 206, i32 205
  %105 = load ptr, ptr %3, align 8
  %106 = getelementptr inbounds %struct.jpeg_decompress_struct, ptr %105, i32 0, i32 5
  store i32 %104, ptr %106, align 4
  store i32 1, ptr %2, align 4
  br label %107

107:                                              ; preds = %99, %82
  %108 = load i32, ptr %2, align 4
  ret i32 %108
}

; Function Attrs: nounwind uwtable
define hidden i32 @jStrtOutput(ptr noundef %0, i32 noundef %1) #0 {
  %3 = alloca ptr, align 8
  %4 = alloca i32, align 4
  store ptr %0, ptr %3, align 8
  store i32 %1, ptr %4, align 4
  %5 = load ptr, ptr %3, align 8
  %6 = getelementptr inbounds %struct.jpeg_decompress_struct, ptr %5, i32 0, i32 5
  %7 = load i32, ptr %6, align 4
  %8 = icmp ne i32 %7, 207
  br i1 %8, label %9, label %33

9:                                                ; preds = %2
  %10 = load ptr, ptr %3, align 8
  %11 = getelementptr inbounds %struct.jpeg_decompress_struct, ptr %10, i32 0, i32 5
  %12 = load i32, ptr %11, align 4
  %13 = icmp ne i32 %12, 204
  br i1 %13, label %14, label %33

14:                                               ; preds = %9
  %15 = load ptr, ptr %3, align 8
  %16 = getelementptr inbounds %struct.jpeg_decompress_struct, ptr %15, i32 0, i32 0
  %17 = load ptr, ptr %16, align 8
  %18 = getelementptr inbounds %struct.jpeg_error_mgr, ptr %17, i32 0, i32 5
  store i32 20, ptr %18, align 8
  %19 = load ptr, ptr %3, align 8
  %20 = getelementptr inbounds %struct.jpeg_decompress_struct, ptr %19, i32 0, i32 5
  %21 = load i32, ptr %20, align 4
  %22 = load ptr, ptr %3, align 8
  %23 = getelementptr inbounds %struct.jpeg_decompress_struct, ptr %22, i32 0, i32 0
  %24 = load ptr, ptr %23, align 8
  %25 = getelementptr inbounds %struct.jpeg_error_mgr, ptr %24, i32 0, i32 6
  %26 = getelementptr inbounds [8 x i32], ptr %25, i64 0, i64 0
  store i32 %21, ptr %26, align 4
  %27 = load ptr, ptr %3, align 8
  %28 = getelementptr inbounds %struct.jpeg_decompress_struct, ptr %27, i32 0, i32 0
  %29 = load ptr, ptr %28, align 8
  %30 = getelementptr inbounds %struct.jpeg_error_mgr, ptr %29, i32 0, i32 0
  %31 = load ptr, ptr %30, align 8
  %32 = load ptr, ptr %3, align 8
  call void %31(ptr noundef %32)
  br label %33

33:                                               ; preds = %14, %9, %2
  %34 = load i32, ptr %4, align 4
  %35 = icmp sle i32 %34, 0
  br i1 %35, label %36, label %37

36:                                               ; preds = %33
  store i32 1, ptr %4, align 4
  br label %37

37:                                               ; preds = %36, %33
  %38 = load ptr, ptr %3, align 8
  %39 = getelementptr inbounds %struct.jpeg_decompress_struct, ptr %38, i32 0, i32 81
  %40 = load ptr, ptr %39, align 8
  %41 = getelementptr inbounds %struct.jpeg_input_controller, ptr %40, i32 0, i32 5
  %42 = load i32, ptr %41, align 4
  %43 = icmp ne i32 %42, 0
  br i1 %43, label %44, label %54

44:                                               ; preds = %37
  %45 = load i32, ptr %4, align 4
  %46 = load ptr, ptr %3, align 8
  %47 = getelementptr inbounds %struct.jpeg_decompress_struct, ptr %46, i32 0, i32 35
  %48 = load i32, ptr %47, align 4
  %49 = icmp sgt i32 %45, %48
  br i1 %49, label %50, label %54

50:                                               ; preds = %44
  %51 = load ptr, ptr %3, align 8
  %52 = getelementptr inbounds %struct.jpeg_decompress_struct, ptr %51, i32 0, i32 35
  %53 = load i32, ptr %52, align 4
  store i32 %53, ptr %4, align 4
  br label %54

54:                                               ; preds = %50, %44, %37
  %55 = load i32, ptr %4, align 4
  %56 = load ptr, ptr %3, align 8
  %57 = getelementptr inbounds %struct.jpeg_decompress_struct, ptr %56, i32 0, i32 37
  store i32 %55, ptr %57, align 4
  %58 = load ptr, ptr %3, align 8
  %59 = call i32 @output_pass_setup(ptr noundef %58)
  ret i32 %59
}