; Function Attrs: nounwind uwtable
define hidden range(i32 0, 2) i32 @jStrtOutput(ptr noundef %0, i32 noundef %1) local_unnamed_addr #0 {
  %3 = getelementptr inbounds i8, ptr %0, i64 36
  %4 = load i32, ptr %3, align 4
  switch i32 %4, label %5 [
    i32 207, label %13
    i32 204, label %13
  ]

5:                                                ; preds = %2
  %6 = load ptr, ptr %0, align 8
  %7 = getelementptr inbounds i8, ptr %6, i64 40
  store i32 20, ptr %7, align 8
  %8 = load i32, ptr %3, align 4
  %9 = load ptr, ptr %0, align 8
  %10 = getelementptr inbounds i8, ptr %9, i64 44
  store i32 %8, ptr %10, align 4
  %11 = load ptr, ptr %0, align 8
  %12 = load ptr, ptr %11, align 8
  tail call void %12(ptr noundef nonnull %0) #3
  br label %13

13:                                               ; preds = %2, %2, %5
  %spec.store.select = tail call i32 @llvm.smax.i32(i32 %1, i32 1)
  %14 = getelementptr inbounds i8, ptr %0, i64 576
  %15 = load ptr, ptr %14, align 8
  %16 = getelementptr inbounds i8, ptr %15, i64 36
  %17 = load i32, ptr %16, align 4
  %.not17 = icmp eq i32 %17, 0
  br i1 %.not17, label %21, label %18

18:                                               ; preds = %13
  %19 = getelementptr inbounds i8, ptr %0, i64 172
  %20 = load i32, ptr %19, align 4
  %spec.select = tail call i32 @llvm.smin.i32(i32 %spec.store.select, i32 %20)
  br label %21

21:                                               ; preds = %18, %13
  %.0 = phi i32 [ %spec.store.select, %13 ], [ %spec.select, %18 ]
  %22 = getelementptr inbounds i8, ptr %0, i64 180
  store i32 %.0, ptr %22, align 4
  %23 = load i32, ptr %3, align 4
  %.not.i = icmp eq i32 %23, 204
  br i1 %.not.i, label %29, label %24

24:                                               ; preds = %21
  %25 = getelementptr inbounds i8, ptr %0, i64 544
  %26 = load ptr, ptr %25, align 8
  %27 = load ptr, ptr %26, align 8
  tail call void %27(ptr noundef nonnull %0) #3
  %28 = getelementptr inbounds i8, ptr %0, i64 168
  store i32 0, ptr %28, align 8
  store i32 204, ptr %3, align 4
  br label %29

29:                                               ; preds = %24, %21
  %30 = getelementptr inbounds i8, ptr %0, i64 544
  %31 = load ptr, ptr %30, align 8
  %32 = getelementptr inbounds i8, ptr %31, i64 16
  %33 = load i32, ptr %32, align 8
  %.not3034.i = icmp eq i32 %33, 0
  br i1 %.not3034.i, label %._crit_edge.i, label %.preheader.lr.ph.i

.preheader.lr.ph.i:                               ; preds = %29
  %34 = getelementptr inbounds i8, ptr %0, i64 168
  %35 = getelementptr inbounds i8, ptr %0, i64 140
  %36 = getelementptr inbounds i8, ptr %0, i64 16
  %37 = getelementptr inbounds i8, ptr %0, i64 552
  %.pre.pre.i = load i32, ptr %34, align 8
  br label %.preheader.i

.preheader.i:                                     ; preds = %.preheader.i.backedge, %.preheader.lr.ph.i
  %38 = phi i32 [ %.pre.pre.i, %.preheader.lr.ph.i ], [ %.be, %.preheader.i.backedge ]
  %39 = load i32, ptr %35, align 4
  %40 = icmp ult i32 %38, %39
  br i1 %40, label %41, label %59

41:                                               ; preds = %.preheader.i
  %42 = load ptr, ptr %36, align 8
  %.not32.i = icmp eq ptr %42, null
  br i1 %.not32.i, label %52, label %43

43:                                               ; preds = %41
  %44 = zext i32 %38 to i64
  %45 = getelementptr inbounds i8, ptr %42, i64 8
  store i64 %44, ptr %45, align 8
  %46 = load i32, ptr %35, align 4
  %47 = zext i32 %46 to i64
  %48 = load ptr, ptr %36, align 8
  %49 = getelementptr inbounds i8, ptr %48, i64 16
  store i64 %47, ptr %49, align 8
  %50 = load ptr, ptr %36, align 8
  %51 = load ptr, ptr %50, align 8
  tail call void %51(ptr noundef nonnull %0) #3
  %.pre35.i = load i32, ptr %34, align 8
  br label %52

52:                                               ; preds = %43, %41
  %53 = phi i32 [ %.pre35.i, %43 ], [ %38, %41 ]
  %54 = load ptr, ptr %37, align 8
  %55 = getelementptr inbounds i8, ptr %54, i64 8
  %56 = load ptr, ptr %55, align 8
  tail call void %56(ptr noundef nonnull %0, ptr noundef null, ptr noundef nonnull %34, i32 noundef 0) #3
  %57 = load i32, ptr %34, align 8
  %58 = icmp eq i32 %57, %53
  br i1 %58, label %output_pass_setup.exit, label %.preheader.i.backedge

.preheader.i.backedge:                            ; preds = %52, %59
  %.be = phi i32 [ %57, %52 ], [ 0, %59 ]
  br label %.preheader.i, !llvm.loop !6

59:                                               ; preds = %.preheader.i
  %60 = load ptr, ptr %30, align 8
  %61 = getelementptr inbounds i8, ptr %60, i64 8
  %62 = load ptr, ptr %61, align 8
  tail call void %62(ptr noundef nonnull %0) #3
  %63 = load ptr, ptr %30, align 8
  %64 = load ptr, ptr %63, align 8
  tail call void %64(ptr noundef nonnull %0) #3
  store i32 0, ptr %34, align 8
  %65 = load ptr, ptr %30, align 8
  %66 = getelementptr inbounds i8, ptr %65, i64 16
  %67 = load i32, ptr %66, align 8
  %.not30.i = icmp eq i32 %67, 0
  br i1 %.not30.i, label %._crit_edge.i, label %.preheader.i.backedge

._crit_edge.i:                                    ; preds = %59, %29
  %68 = getelementptr inbounds i8, ptr %0, i64 92
  %69 = load i32, ptr %68, align 4
  %.not31.i = icmp eq i32 %69, 0
  %70 = select i1 %.not31.i, i32 205, i32 206
  store i32 %70, ptr %3, align 4
  br label %output_pass_setup.exit

output_pass_setup.exit:                           ; preds = %52, %._crit_edge.i
  %.0.i = phi i32 [ 1, %._crit_edge.i ], [ 0, %52 ]
  ret i32 %.0.i
}